; Function Attrs: nounwind uwtable
define ptr @l_Lean_Lsp_instToJsonInlayHintTooltip(ptr noundef %0) local_unnamed_addr #0 {
  %2 = ptrtoint ptr %0 to i64
  %3 = and i64 %2, 1
  %.not.i24 = icmp eq i64 %3, 0
  br i1 %.not.i24, label %7, label %4

4:                                                ; preds = %1
  %5 = lshr i64 %2, 1
  %6 = trunc i64 %5 to i32
  br label %lean_obj_tag.exit

7:                                                ; preds = %1
  %8 = getelementptr i8, ptr %0, i64 4
  %.val.i = load i32, ptr %8, align 4
  %9 = lshr i32 %.val.i, 24
  br label %lean_obj_tag.exit

lean_obj_tag.exit:                                ; preds = %4, %7
  %.0.i = phi i32 [ %6, %4 ], [ %9, %7 ]
  %10 = icmp eq i32 %.0.i, 0
  br i1 %10, label %11, label %41

11:                                               ; preds = %lean_obj_tag.exit
  %.val = load i32, ptr %0, align 4, !tbaa !8
  %12 = icmp eq i32 %.val, 1
  br i1 %12, label %13, label %18

13:                                               ; preds = %11
  %14 = getelementptr inbounds nuw i8, ptr %0, i64 4
  %15 = load i32, ptr %14, align 4
  %16 = and i32 %15, 16777215
  %17 = or disjoint i32 %16, 50331648
  store i32 %17, ptr %14, align 4
  br label %lean_dec.exit

18:                                               ; preds = %11
  %19 = getelementptr inbounds nuw i8, ptr %0, i64 8
  %20 = load ptr, ptr %19, align 8, !tbaa !4
  %21 = ptrtoint ptr %20 to i64
  %22 = and i64 %21, 1
  %.not31 = icmp eq i64 %22, 0
  br i1 %.not31, label %23, label %lean_inc.exit17

23:                                               ; preds = %18
  %.val.i25 = load i32, ptr %20, align 4, !tbaa !8
  %24 = icmp sgt i32 %.val.i25, 0
  br i1 %24, label %25, label %27, !prof !11

25:                                               ; preds = %23
  %26 = add nuw i32 %.val.i25, 1
  store i32 %26, ptr %20, align 4, !tbaa !8
  br label %lean_inc.exit17

27:                                               ; preds = %23
  %.not.i26 = icmp eq i32 %.val.i25, 0
  br i1 %.not.i26, label %lean_inc.exit17, label %28

28:                                               ; preds = %27
  tail call void @lean_inc_ref_cold(ptr noundef nonnull %20) #9
  br label %lean_inc.exit17

lean_inc.exit17:                                  ; preds = %28, %27, %25, %18
  br i1 %.not.i24, label %29, label %lean_dec.exit19

29:                                               ; preds = %lean_inc.exit17
  %30 = load i32, ptr %0, align 4, !tbaa !8
  %31 = icmp sgt i32 %30, 1
  br i1 %31, label %32, label %34, !prof !11

32:                                               ; preds = %29
  %33 = add nsw i32 %30, -1
  store i32 %33, ptr %0, align 4, !tbaa !8
  br label %lean_dec.exit19

34:                                               ; preds = %29
  %.not.i = icmp eq i32 %30, 0
  br i1 %.not.i, label %lean_dec.exit19, label %35

35:                                               ; preds = %34
  tail call void @lean_dec_ref_cold(ptr noundef nonnull %0) #9
  br label %lean_dec.exit19

lean_dec.exit19:                                  ; preds = %35, %34, %32, %lean_inc.exit17
  tail call void @lean_inc_heartbeat() #9
  %36 = tail call noalias ptr @mi_malloc_small(i64 noundef 16) #9
  %37 = icmp eq ptr %36, null
  br i1 %37, label %38, label %lean_alloc_ctor.exit

38:                                               ; preds = %lean_dec.exit19
  tail call void @lean_internal_panic_out_of_memory() #10
  unreachable

lean_alloc_ctor.exit:                             ; preds = %lean_dec.exit19
  %39 = getelementptr inbounds nuw i8, ptr %36, i64 4
  store i32 1, ptr %36, align 4, !tbaa !8
  store i32 50397200, ptr %39, align 4
  %40 = getelementptr inbounds nuw i8, ptr %36, i64 8
  store ptr %20, ptr %40, align 8, !tbaa !4
  br label %lean_dec.exit

41:                                               ; preds = %lean_obj_tag.exit
  %42 = getelementptr inbounds nuw i8, ptr %0, i64 8
  %43 = load ptr, ptr %42, align 8, !tbaa !4
  %44 = ptrtoint ptr %43 to i64
  %45 = and i64 %44, 1
  %.not = icmp eq i64 %45, 0
  br i1 %.not, label %46, label %lean_inc.exit

46:                                               ; preds = %41
  %.val.i27 = load i32, ptr %43, align 4, !tbaa !8
  %47 = icmp sgt i32 %.val.i27, 0
  br i1 %47, label %48, label %50, !prof !11

48:                                               ; preds = %46
  %49 = add nuw i32 %.val.i27, 1
  store i32 %49, ptr %43, align 4, !tbaa !8
  br label %lean_inc.exit

50:                                               ; preds = %46
  %.not.i28 = icmp eq i32 %.val.i27, 0
  br i1 %.not.i28, label %lean_inc.exit, label %51

51:                                               ; preds = %50
  tail call void @lean_inc_ref_cold(ptr noundef nonnull %43) #9
  br label %lean_inc.exit

lean_inc.exit:                                    ; preds = %51, %50, %48, %41
  br i1 %.not.i24, label %52, label %lean_dec.exit18

52:                                               ; preds = %lean_inc.exit
  %53 = load i32, ptr %0, align 4, !tbaa !8
  %54 = icmp sgt i32 %53, 1
  br i1 %54, label %55, label %57, !prof !11

55:                                               ; preds = %52
  %56 = add nsw i32 %53, -1
  store i32 %56, ptr %0, align 4, !tbaa !8
  br label %lean_dec.exit18

57:                                               ; preds = %52
  %.not.i20 = icmp eq i32 %53, 0
  br i1 %.not.i20, label %lean_dec.exit18, label %58

58:                                               ; preds = %57
  tail call void @lean_dec_ref_cold(ptr noundef nonnull %0) #9
  br label %lean_dec.exit18

lean_dec.exit18:                                  ; preds = %58, %57, %55, %lean_inc.exit
  %59 = tail call ptr @l___private_Lean_Data_Lsp_Basic_0__Lean_Lsp_toJsonMarkupContent____x40_Lean_Data_Lsp_Basic___hyg_6090_(ptr noundef %43) #9
  br i1 %.not, label %60, label %lean_dec.exit

60:                                               ; preds = %lean_dec.exit18
  %61 = load i32, ptr %43, align 4, !tbaa !8
  %62 = icmp sgt i32 %61, 1
  br i1 %62, label %63, label %65, !prof !11

63:                                               ; preds = %60
  %64 = add nsw i32 %61, -1
  store i32 %64, ptr %43, align 4, !tbaa !8
  br label %lean_dec.exit

65:                                               ; preds = %60
  %.not.i22 = icmp eq i32 %61, 0
  br i1 %.not.i22, label %lean_dec.exit, label %66

66:                                               ; preds = %65
  tail call void @lean_dec_ref_cold(ptr noundef nonnull %43) #9
  br label %lean_dec.exit

lean_dec.exit:                                    ; preds = %lean_dec.exit18, %63, %65, %66, %13, %lean_alloc_ctor.exit
  %.1 = phi ptr [ %0, %13 ], [ %36, %lean_alloc_ctor.exit ], [ %59, %66 ], [ %59, %65 ], [ %59, %63 ], [ %59, %lean_dec.exit18 ]
  ret ptr %.1
}